Certificate:
    Data:
        Version: 3 (0x2)
        Serial Number: 4096 (0x1000)
    Signature Algorithm: sha256WithRSAEncryption
        Issuer: C=CN, ST=hubei, L=wuhan, O=ncc, OU=ncc, CN=lyf/emailAddress=u202012155@hust.edu.cn
        Validity
            Not Before: May  9 02:54:02 2023 GMT
            Not After : May  8 02:54:02 2024 GMT
        Subject: C=CN, ST=hubei, O=ncc, OU=ncc, CN=lyf/emailAddress=u202012155@hust.edu.cn
        Subject Public Key Info:
            Public Key Algorithm: rsaEncryption
                Public-Key: (2048 bit)
                Modulus:
                    00:9a:73:fe:00:68:59:25:6a:02:3b:90:74:52:66:
                    8f:0b:ea:0e:7b:47:63:ac:7b:fe:13:c2:15:8c:9d:
                    aa:0e:c3:ee:0a:2d:25:9c:fc:08:c4:18:ab:ac:58:
                    f9:b7:fe:54:56:df:9d:4a:35:2b:a7:23:38:a2:24:
                    6d:25:f9:8d:22:4e:64:cb:63:cd:a3:5d:99:61:8b:
                    19:07:cc:2f:34:60:3d:42:83:8e:54:6e:2c:e1:a1:
                    61:3f:e0:42:0d:81:1d:6b:48:29:48:bf:c7:ff:1c:
                    ca:91:ab:f7:8d:45:7f:f1:66:7c:34:0e:e0:50:33:
                    c2:cf:63:16:90:1e:e0:25:0e:6b:fd:e6:67:1a:9d:
                    a8:58:16:b1:a5:c4:c6:8f:0c:df:39:6a:3f:16:bf:
                    92:4d:b5:73:3f:06:8b:76:47:a4:bd:0f:fc:18:4b:
                    c7:6f:6a:6f:c9:04:2f:b4:bb:18:7d:db:39:2e:b1:
                    a5:da:32:86:c0:1e:53:23:1a:06:1a:01:cc:ce:e6:
                    dd:29:4d:f0:c1:9b:4d:c0:b7:a0:0c:8e:f9:d0:8f:
                    5c:dc:f8:c6:f7:7f:34:c0:f7:92:75:4d:fe:23:6d:
                    5d:a6:4c:3b:fc:9b:d8:c8:51:96:56:d7:31:e8:3f:
                    e8:a2:6e:e5:10:0e:e8:13:56:c6:6f:79:bb:d1:a5:
                    ef:4b
                Exponent: 65537 (0x10001)
        X509v3 extensions:
            X509v3 Basic Constraints: 
                CA:FALSE
            Netscape Comment: 
                OpenSSL Generated Certificate
            X509v3 Subject Key Identifier: 
                E5:30:33:79:B6:CB:64:A7:73:F2:46:A4:D8:26:B6:F8:EF:BB:1A:33
            X509v3 Authority Key Identifier: 
                keyid:2B:53:97:DC:FC:FC:B7:98:F8:94:8E:1C:51:5D:DB:AB:F1:58:DB:7D

    Signature Algorithm: sha256WithRSAEncryption
         3b:cf:2b:94:24:53:25:36:e4:4c:76:09:f1:20:a9:1c:f2:88:
         42:8f:c3:6e:b7:00:65:5d:6f:c6:ae:1d:51:3b:50:62:94:9b:
         76:a3:af:e7:e0:74:89:09:6d:e6:6a:32:b5:7a:e9:e2:a5:4c:
         41:36:eb:65:03:3b:cd:8e:9a:df:7b:40:60:0c:e7:22:c8:e5:
         18:fc:e1:07:ac:bd:1e:02:63:4f:5c:12:4a:04:ce:2d:cd:e1:
         c6:ad:e5:a3:21:f8:07:1e:16:95:b7:46:6a:56:ae:8e:7f:c9:
         05:5a:b2:9c:e5:52:dd:e8:69:06:ec:0c:f1:75:fc:e3:d5:d9:
         62:d6:f6:d5:c2:5c:23:63:db:e1:49:d8:c4:54:f2:28:d5:bb:
         43:24:72:02:ff:70:fc:04:93:4a:5c:4a:6a:d9:29:62:71:5b:
         bb:44:b8:82:92:6b:e6:12:14:e2:38:d3:10:e0:46:8e:bb:02:
         7d:13:99:7d:72:cc:92:ac:ab:49:5e:3b:cd:72:a3:88:21:83:
         0e:cb:3a:79:06:7f:8b:cb:d6:30:df:f2:ba:bd:cf:ee:fb:f8:
         58:e3:26:6a:fa:5d:fc:f8:84:54:b9:2e:86:5a:c9:1f:30:f8:
         db:95:87:5e:9f:7f:5e:b9:91:cc:22:ac:c7:bf:5a:77:87:dd:
         86:7d:d5:9f
-----BEGIN CERTIFICATE-----
MIID4zCCAsugAwIBAgICEAAwDQYJKoZIhvcNAQELBQAwfjELMAkGA1UEBhMCQ04x
DjAMBgNVBAgMBWh1YmVpMQ4wDAYDVQQHDAV3dWhhbjEMMAoGA1UECgwDbmNjMQww
CgYDVQQLDANuY2MxDDAKBgNVBAMMA2x5ZjElMCMGCSqGSIb3DQEJARYWdTIwMjAx
MjE1NUBodXN0LmVkdS5jbjAeFw0yMzA1MDkwMjU0MDJaFw0yNDA1MDgwMjU0MDJa
MG4xCzAJBgNVBAYTAkNOMQ4wDAYDVQQIDAVodWJlaTEMMAoGA1UECgwDbmNjMQww
CgYDVQQLDANuY2MxDDAKBgNVBAMMA2x5ZjElMCMGCSqGSIb3DQEJARYWdTIwMjAx
MjE1NUBodXN0LmVkdS5jbjCCASIwDQYJKoZIhvcNAQEBBQADggEPADCCAQoCggEB
AJpz/gBoWSVqAjuQdFJmjwvqDntHY6x7/hPCFYydqg7D7gotJZz8CMQYq6xY+bf+
VFbfnUo1K6cjOKIkbSX5jSJOZMtjzaNdmWGLGQfMLzRgPUKDjlRuLOGhYT/gQg2B
HWtIKUi/x/8cypGr941Ff/FmfDQO4FAzws9jFpAe4CUOa/3mZxqdqFgWsaXExo8M
3zlqPxa/kk21cz8Gi3ZHpL0P/BhLx29qb8kEL7S7GH3bOS6xpdoyhsAeUyMaBhoB
zM7m3SlN8MGbTcC3oAyO+dCPXNz4xvd/NMD3knVN/iNtXaZMO/yb2MhRllbXMeg/
6KJu5RAO6BNWxm95u9Gl70sCAwEAAaN7MHkwCQYDVR0TBAIwADAsBglghkgBhvhC
AQ0EHxYdT3BlblNTTCBHZW5lcmF0ZWQgQ2VydGlmaWNhdGUwHQYDVR0OBBYEFOUw
M3m2y2Snc/JGpNgmtvjvuxozMB8GA1UdIwQYMBaAFCtTl9z8/LeY+JSOHFFd26vx
WNt9MA0GCSqGSIb3DQEBCwUAA4IBAQA7zyuUJFMlNuRMdgnxIKkc8ohCj8NutwBl
XW/Grh1RO1BilJt2o6/n4HSJCW3majK1eunipUxBNutlAzvNjprfe0BgDOciyOUY
/OEHrL0eAmNPXBJKBM4tzeHGreWjIfgHHhaVt0ZqVq6Of8kFWrKc5VLd6GkG7Azx
dfzj1dli1vbVwlwjY9vhSdjEVPIo1btDJHIC/3D8BJNKXEpq2SlicVu7RLiCkmvm
EhTiONMQ4EaOuwJ9E5l9csySrKtJXjvNcqOIIYMOyzp5Bn+Ly9Yw3/K6vc/u+/hY
4yZq+l38+IRUuS6GWskfMPjblYden39euZHMIqzHv1p3h92GfdWf
-----END CERTIFICATE-----
