Certificate:
    Data:
        Version: 3 (0x2)
        Serial Number: 4097 (0x1001)
    Signature Algorithm: sha256WithRSAEncryption
        Issuer: C=CN, ST=hubei, L=wuhan, O=ncc, OU=ncc, CN=lyf/emailAddress=u202012155@hust.edu.cn
        Validity
            Not Before: May  9 02:56:28 2023 GMT
            Not After : May  8 02:56:28 2024 GMT
        Subject: C=CN, ST=hubei, L=wuhan, O=ncc, OU=ncc, CN=lyf/emailAddress=u202012155@hust.edu.cn
        Subject Public Key Info:
            Public Key Algorithm: rsaEncryption
                Public-Key: (2048 bit)
                Modulus:
                    00:f8:2a:35:b3:79:c5:74:7d:9c:95:b6:f0:89:d1:
                    6d:7d:99:c5:b3:d3:fe:a7:9a:fd:cb:5a:54:bb:43:
                    0c:8f:38:72:59:59:36:a8:de:c5:27:11:b9:9a:94:
                    01:ed:ca:3f:f8:f1:4a:5d:1d:a6:22:be:ee:5e:22:
                    32:5b:b9:1a:4f:2f:20:3c:b6:36:97:4b:c4:59:5f:
                    2d:fa:9d:54:b1:54:ee:27:ed:79:1a:12:e4:e2:9f:
                    be:47:a5:a3:46:c7:59:c3:62:9b:47:f3:c6:2d:6d:
                    ea:0f:b0:bc:d1:89:de:93:0c:a3:6c:37:4e:22:81:
                    bc:82:8a:85:28:9c:59:27:eb:7f:77:86:ba:06:28:
                    1d:0d:8b:72:9c:aa:53:2f:3b:4c:4c:56:ef:d3:24:
                    76:1a:de:3c:c1:47:23:42:4e:a6:9a:9c:c0:98:8d:
                    d7:18:e4:0f:9b:7b:10:74:26:33:cf:40:b4:a7:f4:
                    d9:9a:ff:48:1d:d8:86:d8:d4:43:cd:0e:b0:b3:d3:
                    ed:90:09:17:13:63:61:d0:8f:28:49:a7:cf:86:cd:
                    c9:c2:24:98:b7:40:f5:d7:84:96:38:48:ec:31:93:
                    17:88:67:aa:0a:65:ad:ac:44:64:04:14:dd:5e:b0:
                    b7:9c:8d:a0:99:1e:2e:84:6f:69:02:31:d4:00:16:
                    e4:9b
                Exponent: 65537 (0x10001)
        X509v3 extensions:
            X509v3 Basic Constraints: 
                CA:FALSE
            Netscape Comment: 
                OpenSSL Generated Certificate
            X509v3 Subject Key Identifier: 
                BE:7B:84:62:24:89:0A:B9:30:0E:34:78:11:10:B7:FF:18:9D:E0:5B
            X509v3 Authority Key Identifier: 
                keyid:2B:53:97:DC:FC:FC:B7:98:F8:94:8E:1C:51:5D:DB:AB:F1:58:DB:7D

    Signature Algorithm: sha256WithRSAEncryption
         49:1e:6f:0d:65:4f:7b:0a:22:9a:68:7d:4b:09:07:d2:e4:ad:
         3c:03:f2:00:c5:bf:bd:21:06:10:36:dd:c9:23:de:51:b7:9f:
         b2:19:50:c6:f3:9f:30:8e:c7:29:32:e7:45:db:87:65:5f:28:
         4d:27:4c:38:da:97:37:4f:e6:03:f4:6c:58:a9:34:e9:80:76:
         57:14:2c:3e:1c:3c:15:30:74:42:37:43:4a:8d:0b:e9:b2:ec:
         75:f6:64:39:d1:d3:a2:c4:43:0a:0e:e9:f3:5e:9a:82:3c:3c:
         ec:8d:43:b6:41:ed:53:df:05:8f:ea:0b:fb:c6:09:e7:00:c5:
         ec:d6:81:c3:ab:5b:75:83:a2:2d:e5:18:a9:ad:bd:71:be:fe:
         79:8a:8e:17:a6:00:10:98:af:5b:8c:6d:fc:52:15:c0:96:5d:
         a2:f6:97:a5:1c:67:18:b0:5c:8a:90:ee:6b:e7:54:b6:c1:6d:
         c9:19:dc:3b:7f:51:3d:e8:87:4b:21:f2:8c:dc:7f:49:c6:a3:
         59:c3:ea:3d:7a:f9:db:b6:b8:d1:b6:a6:06:9c:a3:f1:84:7b:
         4a:b2:67:e3:56:96:9b:ca:81:64:ef:d3:72:ae:0e:e6:8f:29:
         d2:cf:1f:b4:36:c9:32:d3:10:a7:cc:00:d6:80:9a:02:6a:d7:
         4f:c1:bc:6d
-----BEGIN CERTIFICATE-----
MIID8zCCAtugAwIBAgICEAEwDQYJKoZIhvcNAQELBQAwfjELMAkGA1UEBhMCQ04x
DjAMBgNVBAgMBWh1YmVpMQ4wDAYDVQQHDAV3dWhhbjEMMAoGA1UECgwDbmNjMQww
CgYDVQQLDANuY2MxDDAKBgNVBAMMA2x5ZjElMCMGCSqGSIb3DQEJARYWdTIwMjAx
MjE1NUBodXN0LmVkdS5jbjAeFw0yMzA1MDkwMjU2MjhaFw0yNDA1MDgwMjU2Mjha
MH4xCzAJBgNVBAYTAkNOMQ4wDAYDVQQIDAVodWJlaTEOMAwGA1UEBwwFd3VoYW4x
DDAKBgNVBAoMA25jYzEMMAoGA1UECwwDbmNjMQwwCgYDVQQDDANseWYxJTAjBgkq
hkiG9w0BCQEWFnUyMDIwMTIxNTVAaHVzdC5lZHUuY24wggEiMA0GCSqGSIb3DQEB
AQUAA4IBDwAwggEKAoIBAQD4KjWzecV0fZyVtvCJ0W19mcWz0/6nmv3LWlS7QwyP
OHJZWTao3sUnEbmalAHtyj/48UpdHaYivu5eIjJbuRpPLyA8tjaXS8RZXy36nVSx
VO4n7XkaEuTin75HpaNGx1nDYptH88YtbeoPsLzRid6TDKNsN04igbyCioUonFkn
6393hroGKB0Ni3KcqlMvO0xMVu/TJHYa3jzBRyNCTqaanMCYjdcY5A+bexB0JjPP
QLSn9Nma/0gd2IbY1EPNDrCz0+2QCRcTY2HQjyhJp8+GzcnCJJi3QPXXhJY4SOwx
kxeIZ6oKZa2sRGQEFN1esLecjaCZHi6Eb2kCMdQAFuSbAgMBAAGjezB5MAkGA1Ud
EwQCMAAwLAYJYIZIAYb4QgENBB8WHU9wZW5TU0wgR2VuZXJhdGVkIENlcnRpZmlj
YXRlMB0GA1UdDgQWBBS+e4RiJIkKuTAONHgRELf/GJ3gWzAfBgNVHSMEGDAWgBQr
U5fc/Py3mPiUjhxRXdur8VjbfTANBgkqhkiG9w0BAQsFAAOCAQEASR5vDWVPewoi
mmh9SwkH0uStPAPyAMW/vSEGEDbdySPeUbefshlQxvOfMI7HKTLnRduHZV8oTSdM
ONqXN0/mA/RsWKk06YB2VxQsPhw8FTB0QjdDSo0L6bLsdfZkOdHTosRDCg7p816a
gjw87I1DtkHtU98Fj+oL+8YJ5wDF7NaBw6tbdYOiLeUYqa29cb7+eYqOF6YAEJiv
W4xt/FIVwJZdovaXpRxnGLBcipDua+dUtsFtyRncO39RPeiHSyHyjNx/ScajWcPq
PXr527a40bamBpyj8YR7SrJn41aWm8qBZO/Tcq4O5o8p0s8ftDbJMtMQp8wA1oCa
AmrXT8G8bQ==
-----END CERTIFICATE-----
